Certificate:
    Data:
        Version: 3 (0x2)
        Serial Number: 1 (0x1)
        Signature Algorithm: md5WithRSAEncryption
        Issuer: C=UK, O=RNID, OU=ICT Group, CN=Test Software/emailAddress=ict@rnid.org.uk
        Validity
            Not Before: Oct  9 15:47:59 2003 GMT
            Not After : Oct  8 15:47:59 2004 GMT
        Subject: C=UK, O=RNID, OU=ICT Group, CN=Test Software/emailAddress=ict@rnid.org.uk
        Subject Public Key Info:
            Public Key Algorithm: rsaEncryption
            RSA Public Key: (1024 bit)
                Modulus (1024 bit):
                    00:ba:16:97:cd:85:0b:56:6b:4d:12:01:0e:08:fa:
                    79:30:9b:00:42:20:54:fa:6d:44:fe:75:e6:ed:3b:
                    5f:52:79:3a:d7:e4:41:1d:3f:5a:f1:6c:01:8d:cc:
                    11:a4:b4:93:52:bc:2c:33:a4:1d:1c:cf:5e:40:75:
                    22:ac:b9:9f:2d:23:42:2c:b3:e1:3a:27:fa:35:6d:
                    74:ae:f0:e3:68:a0:cd:58:61:ef:ba:9a:bc:57:98:
                    aa:8b:b7:de:08:cb:41:df:db:a9:e3:7c:64:b4:4a:
                    4c:f3:7d:fc:0c:01:c1:87:e2:04:fa:ea:ed:61:08:
                    30:56:1e:22:33:63:09:09:f5
                Exponent: 65537 (0x10001)
        X509v3 extensions:
            X509v3 Basic Constraints: 
                CA:FALSE
            Netscape Comment: 
                OpenSSL Generated Certificate
            X509v3 Subject Key Identifier: 
                D1:0B:B8:8C:52:F8:D3:78:FB:DE:F6:B8:F8:74:7E:E1:3D:B0:42:51
            X509v3 Authority Key Identifier: 
                keyid:87:C8:6D:A1:08:5B:ED:3B:25:2B:C2:4A:39:70:E8:FB:35:F2:3E:8D
                DirName:/C=UK/O=RNID/OU=ICT Group/CN=Test Software/emailAddress=ict@rnid.org.uk
                serial:00

    Signature Algorithm: md5WithRSAEncryption
        59:ee:a7:f3:9b:ef:72:5b:31:66:06:87:e5:c2:ab:84:7e:39:
        1b:15:ce:e4:68:8e:10:de:0c:01:53:31:09:e2:cd:ea:bb:72:
        9d:9d:71:df:b7:4b:68:da:57:2b:c4:40:7f:7f:fe:8f:7b:36:
        f8:de:b1:a1:e8:db:59:59:a5:2b:1e:0d:47:e7:f6:da:20:97:
        61:07:b2:3c:64:5a:e0:96:1d:ec:a8:5c:9e:72:91:bf:52:15:
        bc:53:a8:e4:34:17:02:ac:2b:93:1d:b5:08:3a:98:f0:ed:28:
        c6:7d:94:a5:51:1a:e1:71:bc:15:a7:b9:66:4c:42:64:91:df:
        b0:c7
-----BEGIN CERTIFICATE-----
MIIDNzCCAqCgAwIBAgIBATANBgkqhkiG9w0BAQQFADBoMQswCQYDVQQGEwJVSzEN
MAsGA1UEChMEUk5JRDESMBAGA1UECxMJSUNUIEdyb3VwMRYwFAYDVQQDEw1UZXN0
IFNvZnR3YXJlMR4wHAYJKoZIhvcNAQkBFg9pY3RAcm5pZC5vcmcudWswHhcNMDMx
MDA5MTU0NzU5WhcNMDQxMDA4MTU0NzU5WjBoMQswCQYDVQQGEwJVSzENMAsGA1UE
ChMEUk5JRDESMBAGA1UECxMJSUNUIEdyb3VwMRYwFAYDVQQDEw1UZXN0IFNvZnR3
YXJlMR4wHAYJKoZIhvcNAQkBFg9pY3RAcm5pZC5vcmcudWswgZ8wDQYJKoZIhvcN
AQEBBQADgY0AMIGJAoGBALoWl82FC1ZrTRIBDgj6eTCbAEIgVPptRP515u07X1J5
OtfkQR0/WvFsAY3MEaS0k1K8LDOkHRzPXkB1Iqy5ny0jQiyz4Ton+jVtdK7w42ig
zVhh77qavFeYqou33gjLQd/bqeN8ZLRKTPN9/AwBwYfiBPrq7WEIMFYeIjNjCQn1
AgMBAAGjgfAwge0wCQYDVR0TBAIwADAsBglghkgBhvhCAQ0EHxYdT3BlblNTTCBH
ZW5lcmF0ZWQgQ2VydGlmaWNhdGUwHQYDVR0OBBYEFNELuIxS+NN4+972uPh0fuE9
sEJRMIGSBgNVHSMEgYowgYeAFIfIbaEIW+07JSvCSjlw6Ps18j6NoWykajBoMQsw
CQYDVQQGEwJVSzENMAsGA1UEChMEUk5JRDESMBAGA1UECxMJSUNUIEdyb3VwMRYw
FAYDVQQDEw1UZXN0IFNvZnR3YXJlMR4wHAYJKoZIhvcNAQkBFg9pY3RAcm5pZC5v
cmcudWuCAQAwDQYJKoZIhvcNAQEEBQADgYEAWe6n85vvclsxZgaH5cKrhH45GxXO
5GiOEN4MAVMxCeLN6rtynZ1x37dLaNpXK8RAf3/+j3s2+N6xoejbWVmlKx4NR+f2
2iCXYQeyPGRa4JYd7KhcnnKRv1IVvFOo5DQXAqwrkx21CDqY8O0oxn2UpVEa4XG8
Fae5ZkxCZJHfsMc=
-----END CERTIFICATE-----
