Certificate:
    Data:
        Version: 3 (0x2)
        Serial Number: 1 (0x1)
        Signature Algorithm: md5WithRSAEncryption
        Issuer: C=UK, O=RNID, OU=ICT Group, CN=Test Software/emailAddress=ict@rnid.org.uk
        Validity
            Not Before: Oct  9 14:35:03 2003 GMT
            Not After : Oct  8 14:35:03 2004 GMT
        Subject: C=UK, O=RNID, OU=ICT Group, CN=Test Software/emailAddress=ict@rnid.org.uk
        Subject Public Key Info:
            Public Key Algorithm: rsaEncryption
            RSA Public Key: (1024 bit)
                Modulus (1024 bit):
                    00:c0:54:5a:cc:6c:d6:e5:19:bd:a9:dc:db:fa:a3:
                    31:76:3b:fa:2d:c0:bc:8b:fc:f4:9b:1e:2f:c7:b6:
                    fa:2a:e8:ad:de:82:3e:aa:a3:46:3e:71:eb:53:2c:
                    0e:f4:34:c2:31:2a:7c:9c:53:96:e2:23:7f:bd:bc:
                    a1:05:b8:e3:99:57:49:d2:1d:08:68:06:70:e5:52:
                    52:d3:88:f1:ef:3e:68:1e:00:e8:4a:36:3d:2a:af:
                    60:fb:69:6d:38:58:9c:ed:f1:71:b7:19:3a:3d:c1:
                    68:2b:11:ae:2b:6a:60:ce:e3:c7:b1:8c:28:e2:45:
                    62:26:f6:38:1c:2b:cc:ed:a1
                Exponent: 65537 (0x10001)
        X509v3 extensions:
            X509v3 Basic Constraints: 
                CA:FALSE
            Netscape Comment: 
                OpenSSL Generated Certificate
            X509v3 Subject Key Identifier: 
                2D:28:43:27:5B:01:B7:C3:29:34:A6:2B:0D:EA:9B:11:E6:0D:C8:97
            X509v3 Authority Key Identifier: 
                keyid:D2:C4:51:6A:FE:C4:C1:52:AB:20:34:B8:94:AA:1A:2C:BE:F9:36:2F
                DirName:/C=UK/O=RNID/OU=ICT Group/CN=Test Software/emailAddress=ict@rnid.org.uk
                serial:00

    Signature Algorithm: md5WithRSAEncryption
        03:32:40:77:0b:1b:18:88:2d:0f:cd:5c:06:5b:ef:a4:fa:3e:
        ff:da:53:94:98:ca:09:b0:76:2e:bb:05:6f:f5:0e:d8:b0:fe:
        78:6c:b9:93:4b:11:13:df:b8:ff:cf:19:4b:da:7c:0c:0d:f2:
        1f:43:6c:9f:3c:12:f3:14:e9:31:8c:fe:6c:ce:2d:bb:55:5a:
        49:4d:41:e4:ec:2c:61:dd:5c:61:c5:7e:b2:61:7e:19:f3:ef:
        3c:22:2f:72:ca:15:49:14:50:ec:8b:8b:2f:1b:df:b6:39:1e:
        4c:d5:3a:44:de:05:72:89:ff:27:e8:f8:27:24:d7:e8:73:e4:
        aa:c0
-----BEGIN CERTIFICATE-----
MIIDNzCCAqCgAwIBAgIBATANBgkqhkiG9w0BAQQFADBoMQswCQYDVQQGEwJVSzEN
MAsGA1UEChMEUk5JRDESMBAGA1UECxMJSUNUIEdyb3VwMRYwFAYDVQQDEw1UZXN0
IFNvZnR3YXJlMR4wHAYJKoZIhvcNAQkBFg9pY3RAcm5pZC5vcmcudWswHhcNMDMx
MDA5MTQzNTAzWhcNMDQxMDA4MTQzNTAzWjBoMQswCQYDVQQGEwJVSzENMAsGA1UE
ChMEUk5JRDESMBAGA1UECxMJSUNUIEdyb3VwMRYwFAYDVQQDEw1UZXN0IFNvZnR3
YXJlMR4wHAYJKoZIhvcNAQkBFg9pY3RAcm5pZC5vcmcudWswgZ8wDQYJKoZIhvcN
AQEBBQADgY0AMIGJAoGBAMBUWsxs1uUZvanc2/qjMXY7+i3AvIv89JseL8e2+iro
rd6CPqqjRj5x61MsDvQ0wjEqfJxTluIjf728oQW445lXSdIdCGgGcOVSUtOI8e8+
aB4A6Eo2PSqvYPtpbThYnO3xcbcZOj3BaCsRritqYM7jx7GMKOJFYib2OBwrzO2h
AgMBAAGjgfAwge0wCQYDVR0TBAIwADAsBglghkgBhvhCAQ0EHxYdT3BlblNTTCBH
ZW5lcmF0ZWQgQ2VydGlmaWNhdGUwHQYDVR0OBBYEFC0oQydbAbfDKTSmKw3qmxHm
DciXMIGSBgNVHSMEgYowgYeAFNLEUWr+xMFSqyA0uJSqGiy++TYvoWykajBoMQsw
CQYDVQQGEwJVSzENMAsGA1UEChMEUk5JRDESMBAGA1UECxMJSUNUIEdyb3VwMRYw
FAYDVQQDEw1UZXN0IFNvZnR3YXJlMR4wHAYJKoZIhvcNAQkBFg9pY3RAcm5pZC5v
cmcudWuCAQAwDQYJKoZIhvcNAQEEBQADgYEAAzJAdwsbGIgtD81cBlvvpPo+/9pT
lJjKCbB2LrsFb/UO2LD+eGy5k0sRE9+4/88ZS9p8DA3yH0NsnzwS8xTpMYz+bM4t
u1VaSU1B5OwsYd1cYcV+smF+GfPvPCIvcsoVSRRQ7IuLLxvftjkeTNU6RN4Fcon/
J+j4JyTX6HPkqsA=
-----END CERTIFICATE-----
